; Function Attrs: nounwind uwtable
define dso_local void @zif_rewind(ptr noundef %0, ptr noundef writeonly captures(none) %1) local_unnamed_addr #1 {
  %3 = getelementptr inbounds nuw i8, ptr %0, i64 44
  %4 = load i32, ptr %3, align 4, !tbaa !21
  %cond = icmp eq i32 %4, 1
  br i1 %cond, label %6, label %5, !prof !54

5:                                                ; preds = %2
  tail call void @zend_wrong_parameters_count_error(i32 noundef 1, i32 noundef 1) #18
  br label %11

6:                                                ; preds = %2
  %7 = getelementptr inbounds nuw i8, ptr %0, i64 80
  %8 = getelementptr inbounds nuw i8, ptr %0, i64 88
  %9 = load i8, ptr %8, align 8, !tbaa !21
  %10 = icmp eq i8 %9, 9
  br i1 %10, label %.critedge, label %11, !prof !52

11:                                               ; preds = %5, %6
  %.036.ph = phi i32 [ 14, %6 ], [ 0, %5 ]
  %.035.ph = phi ptr [ %7, %6 ], [ null, %5 ]
  %.034.ph = phi i32 [ 1, %6 ], [ 0, %5 ]
  %.033.ph = phi i32 [ 9, %6 ], [ 1, %5 ]
  tail call void @zend_wrong_parameter_error(i32 noundef %.033.ph, i32 noundef %.034.ph, ptr noundef null, i32 noundef %.036.ph, ptr noundef %.035.ph) #18
  br label %23

.critedge:                                        ; preds = %6
  %12 = load ptr, ptr %7, align 8, !tbaa !21
  %13 = tail call i32 @php_file_le_stream() #18
  %14 = tail call i32 @php_file_le_pstream() #18
  %15 = tail call ptr @zend_fetch_resource2(ptr noundef %12, ptr noundef nonnull @.str.2, i32 noundef %13, i32 noundef %14) #18
  %16 = icmp eq ptr %15, null
  br i1 %16, label %23, label %17

17:                                               ; preds = %.critedge
  %18 = tail call i32 @_php_stream_seek(ptr noundef nonnull %15, i64 noundef 0, i32 noundef 0) #18
  %19 = icmp eq i32 %18, -1
  %20 = getelementptr inbounds nuw i8, ptr %1, i64 8
  br i1 %19, label %21, label %22

21:                                               ; preds = %17
  store i32 2, ptr %20, align 8, !tbaa !21
  br label %23

22:                                               ; preds = %17
  store i32 3, ptr %20, align 8, !tbaa !21
  br label %23

23:                                               ; preds = %11, %.critedge, %22, %21
  ret void
}